; Function Attrs: nounwind uwtable
define ptr @l_Lake_Toml_commentFn___boxed(ptr noundef %0, ptr noundef %1) local_unnamed_addr #1 {
  %3 = load ptr, ptr @l_Lake_Toml_commentFn___closed__2, align 8, !tbaa !10
  %4 = tail call ptr @l_Lake_Toml_chFn(i32 noundef 35, ptr noundef %3, ptr noundef %0, ptr noundef %1) #4
  %5 = getelementptr inbounds nuw i8, ptr %4, i64 40
  %6 = load ptr, ptr %5, align 8, !tbaa !10
  %7 = ptrtoint ptr %6 to i64
  %8 = and i64 %7, 1
  %.not.i4 = icmp eq i64 %8, 0
  br i1 %.not.i4, label %9, label %lean_inc.exit.i

9:                                                ; preds = %2
  %.val.i.i = load i32, ptr %6, align 4, !tbaa !4
  %10 = icmp sgt i32 %.val.i.i, 0
  br i1 %10, label %11, label %13, !prof !9

11:                                               ; preds = %9
  %12 = add nuw i32 %.val.i.i, 1
  store i32 %12, ptr %6, align 4, !tbaa !4
  br label %lean_inc.exit.i

13:                                               ; preds = %9
  %.not.i.i = icmp eq i32 %.val.i.i, 0
  br i1 %.not.i.i, label %lean_inc.exit.i, label %14

14:                                               ; preds = %13
  tail call void @lean_inc_ref_cold(ptr noundef nonnull %6) #4
  br label %lean_inc.exit.i

lean_inc.exit.i:                                  ; preds = %14, %13, %11, %2
  %15 = tail call zeroext i8 @l_Option_beqOption____x40_Init_Data_Option_Basic___hyg_160____at_Lean_Parser_ParserState_hasError___spec__1(ptr noundef %6, ptr noundef nonnull inttoptr (i64 1 to ptr)) #4
  %16 = icmp eq i8 %15, 0
  br i1 %16, label %l_Lake_Toml_commentFn.exit, label %17

17:                                               ; preds = %lean_inc.exit.i
  %18 = load ptr, ptr @l_Lake_Toml_commentBodyFn___closed__1, align 8, !tbaa !10
  %19 = tail call ptr @l_Lean_Parser_takeUntilFn(ptr noundef %18, ptr noundef %0, ptr noundef nonnull %4) #4
  br label %l_Lake_Toml_commentFn.exit

l_Lake_Toml_commentFn.exit:                       ; preds = %lean_inc.exit.i, %17
  %.0.i = phi ptr [ %19, %17 ], [ %4, %lean_inc.exit.i ]
  %20 = ptrtoint ptr %0 to i64
  %21 = and i64 %20, 1
  %.not = icmp eq i64 %21, 0
  br i1 %.not, label %22, label %lean_dec.exit

22:                                               ; preds = %l_Lake_Toml_commentFn.exit
  %23 = load i32, ptr %0, align 4, !tbaa !4
  %24 = icmp sgt i32 %23, 1
  br i1 %24, label %25, label %27, !prof !9

25:                                               ; preds = %22
  %26 = add nsw i32 %23, -1
  store i32 %26, ptr %0, align 4, !tbaa !4
  br label %lean_dec.exit

27:                                               ; preds = %22
  %.not.i = icmp eq i32 %23, 0
  br i1 %.not.i, label %lean_dec.exit, label %28

28:                                               ; preds = %27
  tail call void @lean_dec_ref_cold(ptr noundef nonnull %0) #4
  br label %lean_dec.exit

lean_dec.exit:                                    ; preds = %28, %27, %25, %l_Lake_Toml_commentFn.exit
  ret ptr %.0.i
}